target datalayout = "e-m:e-p270:32:32-p271:32:32-p272:64:64-i64:64-i128:128-f80:128-n8:16:32:64-S128"
target triple = "x86_64-pc-linux-gnu"

%struct.Lf_Man_t_ = type { ptr, ptr, i32, i32, ptr, %struct.Vec_Ptr_t_, %struct.Vec_Int_t_, ptr, %struct.Vec_Ptr_t_, %struct.Lf_Mem_t_, %struct.Lf_Mem_t_, %struct.Vec_Int_t_, %struct.Vec_Int_t_, %struct.Vec_Int_t_, %struct.Vec_Flt_t_, %struct.Vec_Int_t_, %struct.Vec_Flt_t_, %struct.Vec_Int_t_, i64, [4 x double], double, i32, i32, i32, i32, i32, i32, i32, i32, [14 x i32] }
%struct.Vec_Ptr_t_ = type { i32, i32, ptr }
%struct.Lf_Mem_t_ = type { i32, i32, i32, i32, %struct.Vec_Ptr_t_, ptr }
%struct.Vec_Flt_t_ = type { i32, i32, ptr }
%struct.Vec_Int_t_ = type { i32, i32, ptr }
%struct.Lf_Cut_t_ = type { i64, i32, float, i32, i32, [0 x i32] }
%struct.Jf_Par_t_ = type { i32, i32, i32, i32, i32, i32, i32, i32, i32, i32, i32, i32, i32, i32, i32, i32, i32, i32, i32, i32, i32, i32, i32, i32, i32, i32, i32, i32, i32, i32, i32, i32, i32, i32, i32, i32, i32, i32, i32, i32, i64, i64, i64, i64, i64, i64, i64, i64, i32, float, float, float, float, ptr, ptr }

; Function Attrs: inlinehint nounwind uwtable
define internal float @Vec_FltEntry(ptr noundef %0, i32 noundef %1) #1 {
  %3 = alloca ptr, align 8
  %4 = alloca i32, align 4
  store ptr %0, ptr %3, align 8, !tbaa !62
  store i32 %1, ptr %4, align 4, !tbaa !26
  %5 = load ptr, ptr %3, align 8, !tbaa !62
  %6 = getelementptr inbounds nuw %struct.Vec_Flt_t_, ptr %5, i32 0, i32 2
  %7 = load ptr, ptr %6, align 8, !tbaa !133
  %8 = load i32, ptr %4, align 4, !tbaa !26
  %9 = sext i32 %8 to i64
  %10 = getelementptr inbounds float, ptr %7, i64 %9
  %11 = load float, ptr %10, align 4, !tbaa !67
  ret float %11
}

; Function Attrs: inlinehint nounwind uwtable
define internal float @Lf_ObjSwitches(ptr noundef %0, i32 noundef %1) #1 {
  %3 = alloca ptr, align 8
  %4 = alloca i32, align 4
  store ptr %0, ptr %3, align 8, !tbaa !3
  store i32 %1, ptr %4, align 4, !tbaa !26
  %5 = load ptr, ptr %3, align 8, !tbaa !3
  %6 = getelementptr inbounds nuw %struct.Lf_Man_t_, ptr %5, i32 0, i32 16
  %7 = load i32, ptr %4, align 4, !tbaa !26
  %8 = call float @Vec_FltEntry(ptr noundef %6, i32 noundef %7)
  ret float %8
}

; Function Attrs: inlinehint nounwind uwtable
define internal ptr @Vec_IntEntryP(ptr noundef %0, i32 noundef %1) #1 {
  %3 = alloca ptr, align 8
  %4 = alloca i32, align 4
  store ptr %0, ptr %3, align 8, !tbaa !56
  store i32 %1, ptr %4, align 4, !tbaa !26
  %5 = load ptr, ptr %3, align 8, !tbaa !56
  %6 = getelementptr inbounds nuw %struct.Vec_Int_t_, ptr %5, i32 0, i32 2
  %7 = load ptr, ptr %6, align 8, !tbaa !61
  %8 = load i32, ptr %4, align 4, !tbaa !26
  %9 = sext i32 %8 to i64
  %10 = getelementptr inbounds i32, ptr %7, i64 %9
  ret ptr %10
}

; Function Attrs: inlinehint nounwind uwtable
define internal i32 @Vec_IntEntry(ptr noundef %0, i32 noundef %1) #1 {
  %3 = alloca ptr, align 8
  %4 = alloca i32, align 4
  store ptr %0, ptr %3, align 8, !tbaa !56
  store i32 %1, ptr %4, align 4, !tbaa !26
  %5 = load ptr, ptr %3, align 8, !tbaa !56
  %6 = getelementptr inbounds nuw %struct.Vec_Int_t_, ptr %5, i32 0, i32 2
  %7 = load ptr, ptr %6, align 8, !tbaa !61
  %8 = load i32, ptr %4, align 4, !tbaa !26
  %9 = sext i32 %8 to i64
  %10 = getelementptr inbounds i32, ptr %7, i64 %9
  %11 = load i32, ptr %10, align 4, !tbaa !26
  ret i32 %11
}

; Function Attrs: inlinehint nounwind uwtable
define internal float @Lf_CutSwitches(ptr noundef %0, ptr noundef %1) #1 {
  %3 = alloca ptr, align 8
  %4 = alloca ptr, align 8
  %5 = alloca float, align 4
  %6 = alloca i32, align 4
  store ptr %0, ptr %3, align 8, !tbaa !3
  store ptr %1, ptr %4, align 8, !tbaa !65
  call void @llvm.lifetime.start.p0(i64 4, ptr %5) #14
  store float 0.000000e+00, ptr %5, align 4, !tbaa !67
  call void @llvm.lifetime.start.p0(i64 4, ptr %6) #14
  store i32 0, ptr %6, align 4, !tbaa !26
  br label %7

7:                                                ; preds = %25, %2
  %8 = load i32, ptr %6, align 4, !tbaa !26
  %9 = load ptr, ptr %4, align 8, !tbaa !65
  %10 = getelementptr inbounds nuw %struct.Lf_Cut_t_, ptr %9, i32 0, i32 4
  %11 = load i32, ptr %10, align 4
  %12 = lshr i32 %11, 24
  %13 = icmp slt i32 %8, %12
  br i1 %13, label %14, label %28

14:                                               ; preds = %7
  %15 = load ptr, ptr %3, align 8, !tbaa !3
  %16 = load ptr, ptr %4, align 8, !tbaa !65
  %17 = getelementptr inbounds nuw %struct.Lf_Cut_t_, ptr %16, i32 0, i32 5
  %18 = load i32, ptr %6, align 4, !tbaa !26
  %19 = sext i32 %18 to i64
  %20 = getelementptr inbounds [0 x i32], ptr %17, i64 0, i64 %19
  %21 = load i32, ptr %20, align 4, !tbaa !26
  %22 = call float @Lf_ObjSwitches(ptr noundef %15, i32 noundef %21)
  %23 = load float, ptr %5, align 4, !tbaa !67
  %24 = fadd float %23, %22
  store float %24, ptr %5, align 4, !tbaa !67
  br label %25

25:                                               ; preds = %14
  %26 = load i32, ptr %6, align 4, !tbaa !26
  %27 = add nsw i32 %26, 1
  store i32 %27, ptr %6, align 4, !tbaa !26
  br label %7, !llvm.loop !144

28:                                               ; preds = %7
  %29 = load float, ptr %5, align 4, !tbaa !67
  call void @llvm.lifetime.end.p0(i64 4, ptr %6) #14
  call void @llvm.lifetime.end.p0(i64 4, ptr %5) #14
  ret float %29
}

; Function Attrs: inlinehint nounwind uwtable
define internal i32 @Lf_ObjMapRefInc(ptr noundef %0, i32 noundef %1) #1 {
  %3 = alloca ptr, align 8
  %4 = alloca i32, align 4
  store ptr %0, ptr %3, align 8, !tbaa !3
  store i32 %1, ptr %4, align 4, !tbaa !26
  %5 = load ptr, ptr %3, align 8, !tbaa !3
  %6 = getelementptr inbounds nuw %struct.Lf_Man_t_, ptr %5, i32 0, i32 15
  %7 = load ptr, ptr %3, align 8, !tbaa !3
  %8 = load i32, ptr %4, align 4, !tbaa !26
  %9 = call i32 @Lf_ObjOff(ptr noundef %7, i32 noundef %8)
  %10 = call ptr @Vec_IntEntryP(ptr noundef %6, i32 noundef %9)
  %11 = load i32, ptr %10, align 4, !tbaa !26
  %12 = add nsw i32 %11, 1
  store i32 %12, ptr %10, align 4, !tbaa !26
  ret i32 %11
}

; Function Attrs: inlinehint nounwind uwtable
define internal i32 @Lf_ObjOff(ptr noundef %0, i32 noundef %1) #1 {
  %3 = alloca ptr, align 8
  %4 = alloca i32, align 4
  store ptr %0, ptr %3, align 8, !tbaa !3
  store i32 %1, ptr %4, align 4, !tbaa !26
  %5 = load ptr, ptr %3, align 8, !tbaa !3
  %6 = getelementptr inbounds nuw %struct.Lf_Man_t_, ptr %5, i32 0, i32 11
  %7 = load i32, ptr %4, align 4, !tbaa !26
  %8 = call i32 @Vec_IntEntry(ptr noundef %6, i32 noundef %7)
  ret i32 %8
}

; Function Attrs: inlinehint nounwind uwtable
define internal float @Lf_CutArea(ptr noundef %0, ptr noundef %1) #1 {
  %3 = alloca float, align 4
  %4 = alloca ptr, align 8
  %5 = alloca ptr, align 8
  store ptr %0, ptr %4, align 8, !tbaa !3
  store ptr %1, ptr %5, align 8, !tbaa !65
  %6 = load ptr, ptr %5, align 8, !tbaa !65
  %7 = getelementptr inbounds nuw %struct.Lf_Cut_t_, ptr %6, i32 0, i32 4
  %8 = load i32, ptr %7, align 4
  %9 = lshr i32 %8, 24
  %10 = icmp slt i32 %9, 2
  br i1 %10, label %18, label %11

11:                                               ; preds = %2
  %12 = load ptr, ptr %5, align 8, !tbaa !65
  %13 = getelementptr inbounds nuw %struct.Lf_Cut_t_, ptr %12, i32 0, i32 4
  %14 = load i32, ptr %13, align 4
  %15 = lshr i32 %14, 23
  %16 = and i32 %15, 1
  %17 = icmp ne i32 %16, 0
  br i1 %17, label %18, label %19

18:                                               ; preds = %11, %2
  store float 0.000000e+00, ptr %3, align 4
  br label %104

19:                                               ; preds = %11
  %20 = load ptr, ptr %4, align 8, !tbaa !3
  %21 = getelementptr inbounds nuw %struct.Lf_Man_t_, ptr %20, i32 0, i32 1
  %22 = load ptr, ptr %21, align 8, !tbaa !69
  %23 = getelementptr inbounds nuw %struct.Jf_Par_t_, ptr %22, i32 0, i32 20
  %24 = load i32, ptr %23, align 8, !tbaa !70
  %25 = icmp ne i32 %24, 0
  br i1 %25, label %26, label %38

26:                                               ; preds = %19
  %27 = load ptr, ptr %5, align 8, !tbaa !65
  %28 = getelementptr inbounds nuw %struct.Lf_Cut_t_, ptr %27, i32 0, i32 4
  %29 = load i32, ptr %28, align 4
  %30 = lshr i32 %29, 24
  %31 = sitofp i32 %30 to double
  %32 = load ptr, ptr %4, align 8, !tbaa !3
  %33 = load ptr, ptr %5, align 8, !tbaa !65
  %34 = call float @Lf_CutSwitches(ptr noundef %32, ptr noundef %33)
  %35 = fpext float %34 to double
  %36 = call double @llvm.fmuladd.f64(double 1.000000e+00, double %31, double %35)
  %37 = fptrunc double %36 to float
  store float %37, ptr %3, align 4
  br label %104

38:                                               ; preds = %19
  %39 = load ptr, ptr %4, align 8, !tbaa !3
  %40 = getelementptr inbounds nuw %struct.Lf_Man_t_, ptr %39, i32 0, i32 1
  %41 = load ptr, ptr %40, align 8, !tbaa !69
  %42 = getelementptr inbounds nuw %struct.Jf_Par_t_, ptr %41, i32 0, i32 18
  %43 = load i32, ptr %42, align 8, !tbaa !72
  %44 = icmp ne i32 %43, 0
  br i1 %44, label %45, label %80

45:                                               ; preds = %38
  %46 = load ptr, ptr %5, align 8, !tbaa !65
  %47 = getelementptr inbounds nuw %struct.Lf_Cut_t_, ptr %46, i32 0, i32 4
  %48 = load i32, ptr %47, align 4
  %49 = lshr i32 %48, 24
  %50 = load ptr, ptr %4, align 8, !tbaa !3
  %51 = getelementptr inbounds nuw %struct.Lf_Man_t_, ptr %50, i32 0, i32 1
  %52 = load ptr, ptr %51, align 8, !tbaa !69
  %53 = getelementptr inbounds nuw %struct.Jf_Par_t_, ptr %52, i32 0, i32 7
  %54 = load i32, ptr %53, align 4, !tbaa !73
  %55 = add nsw i32 %49, %54
  %56 = load ptr, ptr %4, align 8, !tbaa !3
  %57 = getelementptr inbounds nuw %struct.Lf_Man_t_, ptr %56, i32 0, i32 1
  %58 = load ptr, ptr %57, align 8, !tbaa !69
  %59 = getelementptr inbounds nuw %struct.Jf_Par_t_, ptr %58, i32 0, i32 33
  %60 = load i32, ptr %59, align 4, !tbaa !74
  %61 = icmp ne i32 %60, 0
  br i1 %61, label %62, label %74

62:                                               ; preds = %45
  %63 = load ptr, ptr %5, align 8, !tbaa !65
  %64 = getelementptr inbounds nuw %struct.Lf_Cut_t_, ptr %63, i32 0, i32 4
  %65 = load i32, ptr %64, align 4
  %66 = lshr i32 %65, 24
  %67 = load ptr, ptr %4, align 8, !tbaa !3
  %68 = getelementptr inbounds nuw %struct.Lf_Man_t_, ptr %67, i32 0, i32 1
  %69 = load ptr, ptr %68, align 8, !tbaa !69
  %70 = getelementptr inbounds nuw %struct.Jf_Par_t_, ptr %69, i32 0, i32 0
  %71 = load i32, ptr %70, align 8, !tbaa !75
  %72 = sdiv i32 %71, 2
  %73 = icmp sgt i32 %66, %72
  br label %74

74:                                               ; preds = %62, %45
  %75 = phi i1 [ false, %45 ], [ %73, %62 ]
  %76 = zext i1 %75 to i32
  %77 = add nsw i32 1, %76
  %78 = mul nsw i32 %55, %77
  %79 = sitofp i32 %78 to float
  store float %79, ptr %3, align 4
  br label %104

80:                                               ; preds = %38
  %81 = load ptr, ptr %4, align 8, !tbaa !3
  %82 = getelementptr inbounds nuw %struct.Lf_Man_t_, ptr %81, i32 0, i32 1
  %83 = load ptr, ptr %82, align 8, !tbaa !69
  %84 = getelementptr inbounds nuw %struct.Jf_Par_t_, ptr %83, i32 0, i32 33
  %85 = load i32, ptr %84, align 4, !tbaa !74
  %86 = icmp ne i32 %85, 0
  br i1 %86, label %87, label %99

87:                                               ; preds = %80
  %88 = load ptr, ptr %5, align 8, !tbaa !65
  %89 = getelementptr inbounds nuw %struct.Lf_Cut_t_, ptr %88, i32 0, i32 4
  %90 = load i32, ptr %89, align 4
  %91 = lshr i32 %90, 24
  %92 = load ptr, ptr %4, align 8, !tbaa !3
  %93 = getelementptr inbounds nuw %struct.Lf_Man_t_, ptr %92, i32 0, i32 1
  %94 = load ptr, ptr %93, align 8, !tbaa !69
  %95 = getelementptr inbounds nuw %struct.Jf_Par_t_, ptr %94, i32 0, i32 0
  %96 = load i32, ptr %95, align 8, !tbaa !75
  %97 = sdiv i32 %96, 2
  %98 = icmp sgt i32 %91, %97
  br label %99

99:                                               ; preds = %87, %80
  %100 = phi i1 [ false, %80 ], [ %98, %87 ]
  %101 = zext i1 %100 to i32
  %102 = add nsw i32 1, %101
  %103 = sitofp i32 %102 to float
  store float %103, ptr %3, align 4
  br label %104

104:                                              ; preds = %99, %74, %26, %18
  %105 = load float, ptr %3, align 4
  ret float %105
}

; Function Attrs: nounwind uwtable
define float @Lf_CutRef_rec(ptr noundef %0, ptr noundef %1) #0 {
  %3 = alloca ptr, align 8
  %4 = alloca ptr, align 8
  %5 = alloca [10 x i64], align 16
  %6 = alloca float, align 4
  %7 = alloca i32, align 4
  %8 = alloca i32, align 4
  store ptr %0, ptr %3, align 8, !tbaa !3
  store ptr %1, ptr %4, align 8, !tbaa !65
  call void @llvm.lifetime.start.p0(i64 80, ptr %5) #14
  call void @llvm.memset.p0.i64(ptr align 16 %5, i8 0, i64 80, i1 false)
  call void @llvm.lifetime.start.p0(i64 4, ptr %6) #14
  %9 = load ptr, ptr %3, align 8, !tbaa !3
  %10 = load ptr, ptr %4, align 8, !tbaa !65
  %11 = call float @Lf_CutArea(ptr noundef %9, ptr noundef %10)
  store float %11, ptr %6, align 4, !tbaa !67
  call void @llvm.lifetime.start.p0(i64 4, ptr %7) #14
  call void @llvm.lifetime.start.p0(i64 4, ptr %8) #14
  store i32 0, ptr %7, align 4, !tbaa !26
  br label %12

12:                                               ; preds = %51, %2
  %13 = load i32, ptr %7, align 4, !tbaa !26
  %14 = load ptr, ptr %4, align 8, !tbaa !65
  %15 = getelementptr inbounds nuw %struct.Lf_Cut_t_, ptr %14, i32 0, i32 4
  %16 = load i32, ptr %15, align 4
  %17 = lshr i32 %16, 24
  %18 = icmp slt i32 %13, %17
  br i1 %18, label %19, label %27

19:                                               ; preds = %12
  %20 = load ptr, ptr %4, align 8, !tbaa !65
  %21 = getelementptr inbounds nuw %struct.Lf_Cut_t_, ptr %20, i32 0, i32 5
  %22 = load i32, ptr %7, align 4, !tbaa !26
  %23 = sext i32 %22 to i64
  %24 = getelementptr inbounds [0 x i32], ptr %21, i64 0, i64 %23
  %25 = load i32, ptr %24, align 4, !tbaa !26
  store i32 %25, ptr %8, align 4, !tbaa !26
  %26 = icmp ne i32 %25, 0
  br label %27

27:                                               ; preds = %19, %12
  %28 = phi i1 [ false, %12 ], [ %26, %19 ]
  br i1 %28, label %29, label %54

29:                                               ; preds = %27
  %30 = load ptr, ptr %3, align 8, !tbaa !3
  %31 = load i32, ptr %8, align 4, !tbaa !26
  %32 = call i32 @Lf_ObjOff(ptr noundef %30, i32 noundef %31)
  %33 = icmp slt i32 %32, 0
  br i1 %33, label %34, label %35

34:                                               ; preds = %29
  br label %50

35:                                               ; preds = %29
  %36 = load ptr, ptr %3, align 8, !tbaa !3
  %37 = load i32, ptr %8, align 4, !tbaa !26
  %38 = call i32 @Lf_ObjMapRefInc(ptr noundef %36, i32 noundef %37)
  %39 = icmp ne i32 %38, 0
  br i1 %39, label %49, label %40

40:                                               ; preds = %35
  %41 = load ptr, ptr %3, align 8, !tbaa !3
  %42 = load ptr, ptr %3, align 8, !tbaa !3
  %43 = load i32, ptr %8, align 4, !tbaa !26
  %44 = getelementptr inbounds [10 x i64], ptr %5, i64 0, i64 0
  %45 = call ptr @Lf_ObjCutBestNew(ptr noundef %42, i32 noundef %43, ptr noundef %44)
  %46 = call float @Lf_CutRef_rec(ptr noundef %41, ptr noundef %45)
  %47 = load float, ptr %6, align 4, !tbaa !67
  %48 = fadd float %47, %46
  store float %48, ptr %6, align 4, !tbaa !67
  br label %49

49:                                               ; preds = %40, %35
  br label %50

50:                                               ; preds = %49, %34
  br label %51

51:                                               ; preds = %50
  %52 = load i32, ptr %7, align 4, !tbaa !26
  %53 = add nsw i32 %52, 1
  store i32 %53, ptr %7, align 4, !tbaa !26
  br label %12, !llvm.loop !68

54:                                               ; preds = %27
  %55 = load float, ptr %6, align 4, !tbaa !67
  call void @llvm.lifetime.end.p0(i64 4, ptr %8) #14
  call void @llvm.lifetime.end.p0(i64 4, ptr %7) #14
  call void @llvm.lifetime.end.p0(i64 4, ptr %6) #14
  call void @llvm.lifetime.end.p0(i64 80, ptr %5) #14
  ret float %55
}